target datalayout = "e-m:e-p270:32:32-p271:32:32-p272:64:64-i64:64-i128:128-f80:128-n8:16:32:64-S128"
target triple = "x86_64-pc-linux-gnu"

; Function Attrs: nounwind uwtable
define dso_local i64 @bit_nffs(ptr noundef %0, i32 noundef %1) #0 {
  %3 = alloca ptr, align 8
  %4 = alloca i32, align 4
  %5 = alloca i64, align 8
  %6 = alloca i64, align 8
  %7 = alloca i32, align 4
  store ptr %0, ptr %3, align 8
  store i32 %1, ptr %4, align 4
  call void @llvm.lifetime.start.p0(i64 8, ptr %5) #12
  store i64 -1, ptr %5, align 8
  call void @llvm.lifetime.start.p0(i64 8, ptr %6) #12
  call void @llvm.lifetime.start.p0(i64 4, ptr %7) #12
  store i32 0, ptr %7, align 4
  br label %8

8:                                                ; preds = %2
  br label %9

9:                                                ; preds = %8
  br label %10

10:                                               ; preds = %9
  store i64 0, ptr %6, align 8
  br label %11

11:                                               ; preds = %49, %10
  %12 = load i64, ptr %6, align 8
  %13 = load ptr, ptr %3, align 8
  %14 = getelementptr inbounds i64, ptr %13, i64 1
  %15 = load i64, ptr %14, align 8
  %16 = load i32, ptr %4, align 4
  %17 = sext i32 %16 to i64
  %18 = sub nsw i64 %15, %17
  %19 = icmp sle i64 %12, %18
  br i1 %19, label %20, label %52

20:                                               ; preds = %11
  %21 = load ptr, ptr %3, align 8
  %22 = load i64, ptr %6, align 8
  %23 = ashr i64 %22, 6
  %24 = add nsw i64 %23, 2
  %25 = getelementptr inbounds i64, ptr %21, i64 %24
  %26 = load i64, ptr %25, align 8
  %27 = load i64, ptr %6, align 8
  %28 = and i64 %27, 63
  %29 = shl i64 1, %28
  %30 = and i64 %26, %29
  %31 = icmp ne i64 %30, 0
  br i1 %31, label %32, label %33

32:                                               ; preds = %20
  br i1 true, label %35, label %34

33:                                               ; preds = %20
  br i1 false, label %35, label %34

34:                                               ; preds = %33, %32
  store i32 0, ptr %7, align 4
  br label %48

35:                                               ; preds = %33, %32
  %36 = load i32, ptr %7, align 4
  %37 = add nsw i32 %36, 1
  store i32 %37, ptr %7, align 4
  %38 = load i32, ptr %7, align 4
  %39 = load i32, ptr %4, align 4
  %40 = icmp sge i32 %38, %39
  br i1 %40, label %41, label %47

41:                                               ; preds = %35
  %42 = load i64, ptr %6, align 8
  %43 = load i32, ptr %7, align 4
  %44 = sub nsw i32 %43, 1
  %45 = sext i32 %44 to i64
  %46 = sub nsw i64 %42, %45
  store i64 %46, ptr %5, align 8
  br label %52

47:                                               ; preds = %35
  br label %48

48:                                               ; preds = %47, %34
  br label %49

49:                                               ; preds = %48
  %50 = load i64, ptr %6, align 8
  %51 = add nsw i64 %50, 1
  store i64 %51, ptr %6, align 8
  br label %11, !llvm.loop !40

52:                                               ; preds = %41, %11
  %53 = load i64, ptr %5, align 8
  call void @llvm.lifetime.end.p0(i64 4, ptr %7) #12
  call void @llvm.lifetime.end.p0(i64 8, ptr %6) #12
  call void @llvm.lifetime.end.p0(i64 8, ptr %5) #12
  ret i64 %53
}