; Function Attrs: nofree norecurse nosync nounwind memory(argmem: read) uwtable
define dso_local i64 @bit_nffs(ptr noundef readonly captures(none) %0, i32 noundef %1) #3 {
  %3 = getelementptr inbounds nuw i8, ptr %0, i64 8
  %4 = load i64, ptr %3, align 8
  %5 = sext i32 %1 to i64
  %invariant.gep = getelementptr inbounds nuw i8, ptr %0, i64 16
  %.not19 = icmp slt i64 %4, %5
  br i1 %.not19, label %.loopexit, label %.lr.ph.preheader

.lr.ph.preheader:                                 ; preds = %2
  %6 = add i64 %4, 1
  %7 = sub i64 %6, %5
  br label %.lr.ph

.lr.ph:                                           ; preds = %.lr.ph.preheader, %18
  %.021 = phi i32 [ %.1, %18 ], [ 0, %.lr.ph.preheader ]
  %.01220 = phi i64 [ %19, %18 ], [ 0, %.lr.ph.preheader ]
  %8 = lshr i64 %.01220, 6
  %gep = getelementptr inbounds nuw i64, ptr %invariant.gep, i64 %8
  %9 = load i64, ptr %gep, align 8
  %10 = and i64 %.01220, 63
  %11 = shl nuw i64 1, %10
  %12 = and i64 %9, %11
  %.not15 = icmp eq i64 %12, 0
  br i1 %.not15, label %18, label %13

13:                                               ; preds = %.lr.ph
  %14 = add nsw i32 %.021, 1
  %.not16 = icmp slt i32 %14, %1
  br i1 %.not16, label %18, label %15

15:                                               ; preds = %13
  %16 = sext i32 %.021 to i64
  %17 = sub nsw i64 %.01220, %16
  br label %.loopexit

18:                                               ; preds = %.lr.ph, %13
  %.1 = phi i32 [ %14, %13 ], [ 0, %.lr.ph ]
  %19 = add nuw i64 %.01220, 1
  %exitcond.not = icmp eq i64 %19, %7
  br i1 %exitcond.not, label %.loopexit, label %.lr.ph, !llvm.loop !42

.loopexit:                                        ; preds = %18, %2, %15
  %.013 = phi i64 [ %17, %15 ], [ -1, %2 ], [ -1, %18 ]
  ret i64 %.013
}